ccopy_reg
_reconstructor
p0
(cgoogle.oauth2.credentials
Credentials
p1
c__builtin__
object
p2
Ntp3
Rp4
(dp5
S'_quota_project_id'
p6
NsS'_token_uri'
p7
Vhttps://oauth2.googleapis.com/token
p8
sS'_client_secret'
p9
Vi6or7_OQPoKEq07NKmTGAH5T
p10
sS'_id_token'
p11
NsS'token'
p12
Vya29.a0AfH6SMAiGrykdphCzJep-takgpjdd9iRMZL4b4CDLvOIsTcMOt5VuHPXD87b3lBB8vvSRbuSLsKMkregaGe47AB4GozuiHWgq2cAhicUX7Mp9AE_EmzlF87AXeyFvr1HapueQxcz8NAMBsI7J4PDkUfsiiZ1qElxzfwSIdizHYw
p13
sS'_refresh_token'
p14
V1//09YX7YSg7hRfCCgYIARAAGAkSNwF-L9Ir7woUG4-QzZHQRPZS_gUVHPXK443JJOHLd1YyiYaIQ7UOwaUQwRCn-KJWK3f8Df6fYis
p15
sS'_scopes'
p16
(lp17
S'https://www.googleapis.com/auth/calendar.readonly'
p18
asS'_client_id'
p19
V866538451915-pegjtclkdu3es8qhpicqmj73jm5g4n21.apps.googleusercontent.com
p20
sS'expiry'
p21
cdatetime
datetime
p22
(S'\x07\xe5\x02\x01\n \r\x0b\xe1\xdd'
p23
tp24
Rp25
sb.